target datalayout = "e-m:e-p270:32:32-p271:32:32-p272:64:64-i64:64-i128:128-f80:128-n8:16:32:64-S128"
target triple = "x86_64-pc-linux-gnu"

%"class.net::QuicReceivedPacketManager::EntropyTracker" = type { %"class.std::deque", i8, i64, i64 }
%"class.std::deque" = type { %"class.std::_Deque_base" }
%"class.std::_Deque_base" = type { %"struct.std::_Deque_base<std::pair<unsigned char, bool>, std::allocator<std::pair<unsigned char, bool>>>::_Deque_impl" }
%"struct.std::_Deque_base<std::pair<unsigned char, bool>, std::allocator<std::pair<unsigned char, bool>>>::_Deque_impl" = type { %"struct.std::_Deque_base<std::pair<unsigned char, bool>, std::allocator<std::pair<unsigned char, bool>>>::_Deque_impl_data" }
%"struct.std::_Deque_base<std::pair<unsigned char, bool>, std::allocator<std::pair<unsigned char, bool>>>::_Deque_impl_data" = type { ptr, i64, %"struct.std::_Deque_iterator", %"struct.std::_Deque_iterator" }
%"struct.std::_Deque_iterator" = type { ptr, ptr, ptr, ptr }
%"class.std::allocator.21" = type { i8 }

; Function Attrs: mustprogress nounwind uwtable
define linkonce_odr void @_ZNSt15__new_allocatorIPSt4pairIhbEEC2Ev(ptr noundef nonnull align 1 dereferenceable(1) %0) unnamed_addr #1 comdat align 2 {
  %2 = alloca ptr, align 8
  store ptr %0, ptr %2, align 8, !tbaa !178
  ret void
}

; Function Attrs: mustprogress nounwind uwtable
define linkonce_odr void @_ZNSt15__new_allocatorISt4pairIhbEE10deallocateEPS1_m(ptr noundef nonnull align 1 dereferenceable(1) %0, ptr noundef %1, i64 noundef %2) #1 comdat align 2 {
  %4 = alloca ptr, align 8
  %5 = alloca ptr, align 8
  %6 = alloca i64, align 8
  store ptr %0, ptr %4, align 8, !tbaa !169
  store ptr %1, ptr %5, align 8, !tbaa !43
  store i64 %2, ptr %6, align 8, !tbaa !22
  %7 = load ptr, ptr %5, align 8, !tbaa !43
  call void @_ZdlPv(ptr noundef %7) #16
  ret void
}

; Function Attrs: mustprogress nounwind uwtable
define linkonce_odr void @_ZNSt15__new_allocatorIPSt4pairIhbEE10deallocateEPS2_m(ptr noundef nonnull align 1 dereferenceable(1) %0, ptr noundef %1, i64 noundef %2) #1 comdat align 2 {
  %4 = alloca ptr, align 8
  %5 = alloca ptr, align 8
  %6 = alloca i64, align 8
  store ptr %0, ptr %4, align 8, !tbaa !178
  store ptr %1, ptr %5, align 8, !tbaa !165
  store i64 %2, ptr %6, align 8, !tbaa !22
  %7 = load ptr, ptr %5, align 8, !tbaa !165
  call void @_ZdlPv(ptr noundef %7) #16
  ret void
}

; Function Attrs: mustprogress nounwind uwtable
define linkonce_odr void @_ZNSaIPSt4pairIhbEEC2IS0_EERKSaIT_E(ptr noundef nonnull align 1 dereferenceable(1) %0, ptr noundef nonnull align 1 dereferenceable(1) %1) unnamed_addr #1 comdat align 2 {
  %3 = alloca ptr, align 8
  %4 = alloca ptr, align 8
  store ptr %0, ptr %3, align 8, !tbaa !176
  store ptr %1, ptr %4, align 8, !tbaa !171
  %5 = load ptr, ptr %3, align 8
  call void @_ZNSt15__new_allocatorIPSt4pairIhbEEC2Ev(ptr noundef nonnull align 1 dereferenceable(1) %5) #14
  ret void
}

; Function Attrs: mustprogress nounwind uwtable
define linkonce_odr noundef nonnull align 1 dereferenceable(1) ptr @_ZNKSt11_Deque_baseISt4pairIhbESaIS1_EE19_M_get_Tp_allocatorEv(ptr noundef nonnull align 8 dereferenceable(80) %0) #1 comdat align 2 {
  %2 = alloca ptr, align 8
  store ptr %0, ptr %2, align 8, !tbaa !159
  %3 = load ptr, ptr %2, align 8
  %4 = getelementptr inbounds nuw %"class.std::_Deque_base", ptr %3, i32 0, i32 0
  ret ptr %4
}

; Function Attrs: mustprogress uwtable
define linkonce_odr void @_ZNSt16allocator_traitsISaISt4pairIhbEEE10deallocateERS2_PS1_m(ptr noundef nonnull align 1 dereferenceable(1) %0, ptr noundef %1, i64 noundef %2) #0 comdat align 2 {
  %4 = alloca ptr, align 8
  %5 = alloca ptr, align 8
  %6 = alloca i64, align 8
  store ptr %0, ptr %4, align 8, !tbaa !171
  store ptr %1, ptr %5, align 8, !tbaa !43
  store i64 %2, ptr %6, align 8, !tbaa !22
  %7 = load ptr, ptr %4, align 8, !tbaa !171
  %8 = load ptr, ptr %5, align 8, !tbaa !43
  %9 = load i64, ptr %6, align 8, !tbaa !22
  call void @_ZNSt15__new_allocatorISt4pairIhbEE10deallocateEPS1_m(ptr noundef nonnull align 1 dereferenceable(1) %7, ptr noundef %8, i64 noundef %9)
  ret void
}

; Function Attrs: inlinehint mustprogress nounwind uwtable
define linkonce_odr noundef i64 @_ZSt16__deque_buf_sizem(i64 noundef %0) #5 comdat {
  %2 = alloca i64, align 8
  store i64 %0, ptr %2, align 8, !tbaa !22
  %3 = load i64, ptr %2, align 8, !tbaa !22
  %4 = icmp ult i64 %3, 512
  br i1 %4, label %5, label %8

5:                                                ; preds = %1
  %6 = load i64, ptr %2, align 8, !tbaa !22
  %7 = udiv i64 512, %6
  br label %9

8:                                                ; preds = %1
  br label %9

9:                                                ; preds = %8, %5
  %10 = phi i64 [ %7, %5 ], [ 1, %8 ]
  ret i64 %10
}

; Function Attrs: mustprogress nounwind uwtable
define linkonce_odr void @_ZNSt15__new_allocatorIPSt4pairIhbEED2Ev(ptr noundef nonnull align 1 dereferenceable(1) %0) unnamed_addr #1 comdat align 2 {
  %2 = alloca ptr, align 8
  store ptr %0, ptr %2, align 8, !tbaa !178
  ret void
}

; Function Attrs: mustprogress uwtable
define linkonce_odr void @_ZNSt16allocator_traitsISaIPSt4pairIhbEEE10deallocateERS3_PS2_m(ptr noundef nonnull align 1 dereferenceable(1) %0, ptr noundef %1, i64 noundef %2) #0 comdat align 2 {
  %4 = alloca ptr, align 8
  %5 = alloca ptr, align 8
  %6 = alloca i64, align 8
  store ptr %0, ptr %4, align 8, !tbaa !176
  store ptr %1, ptr %5, align 8, !tbaa !165
  store i64 %2, ptr %6, align 8, !tbaa !22
  %7 = load ptr, ptr %4, align 8, !tbaa !176
  %8 = load ptr, ptr %5, align 8, !tbaa !165
  %9 = load i64, ptr %6, align 8, !tbaa !22
  call void @_ZNSt15__new_allocatorIPSt4pairIhbEE10deallocateEPS2_m(ptr noundef nonnull align 1 dereferenceable(1) %7, ptr noundef %8, i64 noundef %9)
  ret void
}

; Function Attrs: mustprogress nounwind uwtable
define linkonce_odr void @_ZNKSt11_Deque_baseISt4pairIhbESaIS1_EE20_M_get_map_allocatorEv(ptr dead_on_unwind noalias writable sret(%"class.std::allocator.21") align 1 %0, ptr noundef nonnull align 8 dereferenceable(80) %1) #1 comdat align 2 {
  %3 = alloca ptr, align 8
  %4 = alloca ptr, align 8
  store ptr %0, ptr %3, align 8
  store ptr %1, ptr %4, align 8, !tbaa !159
  %5 = load ptr, ptr %4, align 8
  %6 = call noundef nonnull align 1 dereferenceable(1) ptr @_ZNKSt11_Deque_baseISt4pairIhbESaIS1_EE19_M_get_Tp_allocatorEv(ptr noundef nonnull align 8 dereferenceable(80) %5) #14
  call void @_ZNSaIPSt4pairIhbEEC2IS0_EERKSaIT_E(ptr noundef nonnull align 1 dereferenceable(1) %0, ptr noundef nonnull align 1 dereferenceable(1) %6) #14
  ret void
}

; Function Attrs: mustprogress nounwind uwtable
define linkonce_odr void @_ZNSt11_Deque_baseISt4pairIhbESaIS1_EE18_M_deallocate_nodeEPS1_(ptr noundef nonnull align 8 dereferenceable(80) %0, ptr noundef %1) #1 comdat align 2 personality ptr @__gxx_personality_v0 {
  %3 = alloca ptr, align 8
  %4 = alloca ptr, align 8
  store ptr %0, ptr %3, align 8, !tbaa !159
  store ptr %1, ptr %4, align 8, !tbaa !43
  %5 = load ptr, ptr %3, align 8
  %6 = getelementptr inbounds nuw %"class.std::_Deque_base", ptr %5, i32 0, i32 0
  %7 = load ptr, ptr %4, align 8, !tbaa !43
  %8 = call noundef i64 @_ZSt16__deque_buf_sizem(i64 noundef 2)
  invoke void @_ZNSt16allocator_traitsISaISt4pairIhbEEE10deallocateERS2_PS1_m(ptr noundef nonnull align 1 dereferenceable(1) %6, ptr noundef %7, i64 noundef %8)
          to label %9 unwind label %10

9:                                                ; preds = %2
  ret void

10:                                               ; preds = %2
  %11 = landingpad { ptr, i32 }
          catch ptr null
  %12 = extractvalue { ptr, i32 } %11, 0
  call void @__clang_call_terminate(ptr %12) #15
  unreachable
}

; Function Attrs: mustprogress nounwind uwtable
define linkonce_odr void @_ZNSt15__new_allocatorISt4pairIhbEED2Ev(ptr noundef nonnull align 1 dereferenceable(1) %0) unnamed_addr #1 comdat align 2 {
  %2 = alloca ptr, align 8
  store ptr %0, ptr %2, align 8, !tbaa !169
  ret void
}

; Function Attrs: mustprogress nounwind uwtable
define linkonce_odr void @_ZNSt11_Deque_baseISt4pairIhbESaIS1_EE17_M_deallocate_mapEPPS1_m(ptr noundef nonnull align 8 dereferenceable(80) %0, ptr noundef %1, i64 noundef %2) #1 comdat align 2 personality ptr @__gxx_personality_v0 {
  %4 = alloca ptr, align 8
  %5 = alloca ptr, align 8
  %6 = alloca i64, align 8
  %7 = alloca %"class.std::allocator.21", align 1
  store ptr %0, ptr %4, align 8, !tbaa !159
  store ptr %1, ptr %5, align 8, !tbaa !165
  store i64 %2, ptr %6, align 8, !tbaa !22
  %8 = load ptr, ptr %4, align 8
  call void @llvm.lifetime.start.p0(i64 1, ptr %7) #14
  call void @_ZNKSt11_Deque_baseISt4pairIhbESaIS1_EE20_M_get_map_allocatorEv(ptr dead_on_unwind writable sret(%"class.std::allocator.21") align 1 %7, ptr noundef nonnull align 8 dereferenceable(80) %8) #14
  %9 = load ptr, ptr %5, align 8, !tbaa !165
  %10 = load i64, ptr %6, align 8, !tbaa !22
  invoke void @_ZNSt16allocator_traitsISaIPSt4pairIhbEEE10deallocateERS3_PS2_m(ptr noundef nonnull align 1 dereferenceable(1) %7, ptr noundef %9, i64 noundef %10)
          to label %11 unwind label %12

11:                                               ; preds = %3
  call void @_ZNSt15__new_allocatorIPSt4pairIhbEED2Ev(ptr noundef nonnull align 1 dereferenceable(1) %7) #14
  call void @llvm.lifetime.end.p0(i64 1, ptr %7) #14
  ret void

12:                                               ; preds = %3
  %13 = landingpad { ptr, i32 }
          catch ptr null
  %14 = extractvalue { ptr, i32 } %13, 0
  call void @__clang_call_terminate(ptr %14) #15
  unreachable
}

; Function Attrs: mustprogress nounwind uwtable
define linkonce_odr void @_ZNSt11_Deque_baseISt4pairIhbESaIS1_EE16_M_destroy_nodesEPPS1_S5_(ptr noundef nonnull align 8 dereferenceable(80) %0, ptr noundef %1, ptr noundef %2) #1 comdat align 2 {
  %4 = alloca ptr, align 8
  %5 = alloca ptr, align 8
  %6 = alloca ptr, align 8
  %7 = alloca ptr, align 8
  store ptr %0, ptr %4, align 8, !tbaa !159
  store ptr %1, ptr %5, align 8, !tbaa !165
  store ptr %2, ptr %6, align 8, !tbaa !165
  %8 = load ptr, ptr %4, align 8
  call void @llvm.lifetime.start.p0(i64 8, ptr %7) #14
  %9 = load ptr, ptr %5, align 8, !tbaa !165
  store ptr %9, ptr %7, align 8, !tbaa !165
  br label %10

10:                                               ; preds = %18, %3
  %11 = load ptr, ptr %7, align 8, !tbaa !165
  %12 = load ptr, ptr %6, align 8, !tbaa !165
  %13 = icmp ult ptr %11, %12
  br i1 %13, label %15, label %14

14:                                               ; preds = %10
  call void @llvm.lifetime.end.p0(i64 8, ptr %7) #14
  br label %21

15:                                               ; preds = %10
  %16 = load ptr, ptr %7, align 8, !tbaa !165
  %17 = load ptr, ptr %16, align 8, !tbaa !43
  call void @_ZNSt11_Deque_baseISt4pairIhbESaIS1_EE18_M_deallocate_nodeEPS1_(ptr noundef nonnull align 8 dereferenceable(80) %8, ptr noundef %17) #14
  br label %18

18:                                               ; preds = %15
  %19 = load ptr, ptr %7, align 8, !tbaa !165
  %20 = getelementptr inbounds nuw ptr, ptr %19, i32 1
  store ptr %20, ptr %7, align 8, !tbaa !165
  br label %10, !llvm.loop !181

21:                                               ; preds = %14
  ret void
}

; Function Attrs: mustprogress nounwind uwtable
define linkonce_odr void @_ZNSt15_Deque_iteratorISt4pairIhbERS1_PS1_EC2ERKS4_(ptr noundef nonnull align 8 dereferenceable(32) %0, ptr noundef nonnull align 8 dereferenceable(32) %1) unnamed_addr #1 comdat align 2 {
  %3 = alloca ptr, align 8
  %4 = alloca ptr, align 8
  store ptr %0, ptr %3, align 8, !tbaa !62
  store ptr %1, ptr %4, align 8, !tbaa !62
  %5 = load ptr, ptr %3, align 8
  %6 = getelementptr inbounds nuw %"struct.std::_Deque_iterator", ptr %5, i32 0, i32 0
  %7 = load ptr, ptr %4, align 8, !tbaa !62
  %8 = getelementptr inbounds nuw %"struct.std::_Deque_iterator", ptr %7, i32 0, i32 0
  %9 = load ptr, ptr %8, align 8, !tbaa !64
  store ptr %9, ptr %6, align 8, !tbaa !64
  %10 = getelementptr inbounds nuw %"struct.std::_Deque_iterator", ptr %5, i32 0, i32 1
  %11 = load ptr, ptr %4, align 8, !tbaa !62
  %12 = getelementptr inbounds nuw %"struct.std::_Deque_iterator", ptr %11, i32 0, i32 1
  %13 = load ptr, ptr %12, align 8, !tbaa !67
  store ptr %13, ptr %10, align 8, !tbaa !67
  %14 = getelementptr inbounds nuw %"struct.std::_Deque_iterator", ptr %5, i32 0, i32 2
  %15 = load ptr, ptr %4, align 8, !tbaa !62
  %16 = getelementptr inbounds nuw %"struct.std::_Deque_iterator", ptr %15, i32 0, i32 2
  %17 = load ptr, ptr %16, align 8, !tbaa !69
  store ptr %17, ptr %14, align 8, !tbaa !69
  %18 = getelementptr inbounds nuw %"struct.std::_Deque_iterator", ptr %5, i32 0, i32 3
  %19 = load ptr, ptr %4, align 8, !tbaa !62
  %20 = getelementptr inbounds nuw %"struct.std::_Deque_iterator", ptr %19, i32 0, i32 3
  %21 = load ptr, ptr %20, align 8, !tbaa !71
  store ptr %21, ptr %18, align 8, !tbaa !71
  ret void
}

; Function Attrs: noinline noreturn nounwind uwtable
define linkonce_odr hidden void @__clang_call_terminate(ptr noundef %0) #9 comdat {
  %2 = call ptr @__cxa_begin_catch(ptr %0) #14
  call void @_ZSt9terminatev() #15
  unreachable
}

; Function Attrs: mustprogress nounwind uwtable
define linkonce_odr void @_ZNSt11_Deque_baseISt4pairIhbESaIS1_EED2Ev(ptr noundef nonnull align 8 dereferenceable(80) %0) unnamed_addr #1 comdat align 2 {
  %2 = alloca ptr, align 8
  store ptr %0, ptr %2, align 8, !tbaa !159
  %3 = load ptr, ptr %2, align 8
  %4 = getelementptr inbounds nuw %"class.std::_Deque_base", ptr %3, i32 0, i32 0
  %5 = getelementptr inbounds nuw %"struct.std::_Deque_base<std::pair<unsigned char, bool>, std::allocator<std::pair<unsigned char, bool>>>::_Deque_impl_data", ptr %4, i32 0, i32 0
  %6 = load ptr, ptr %5, align 8, !tbaa !164
  %7 = icmp ne ptr %6, null
  br i1 %7, label %8, label %24

8:                                                ; preds = %1
  %9 = getelementptr inbounds nuw %"class.std::_Deque_base", ptr %3, i32 0, i32 0
  %10 = getelementptr inbounds nuw %"struct.std::_Deque_base<std::pair<unsigned char, bool>, std::allocator<std::pair<unsigned char, bool>>>::_Deque_impl_data", ptr %9, i32 0, i32 2
  %11 = getelementptr inbounds nuw %"struct.std::_Deque_iterator", ptr %10, i32 0, i32 3
  %12 = load ptr, ptr %11, align 8, !tbaa !188
  %13 = getelementptr inbounds nuw %"class.std::_Deque_base", ptr %3, i32 0, i32 0
  %14 = getelementptr inbounds nuw %"struct.std::_Deque_base<std::pair<unsigned char, bool>, std::allocator<std::pair<unsigned char, bool>>>::_Deque_impl_data", ptr %13, i32 0, i32 3
  %15 = getelementptr inbounds nuw %"struct.std::_Deque_iterator", ptr %14, i32 0, i32 3
  %16 = load ptr, ptr %15, align 8, !tbaa !189
  %17 = getelementptr inbounds ptr, ptr %16, i64 1
  call void @_ZNSt11_Deque_baseISt4pairIhbESaIS1_EE16_M_destroy_nodesEPPS1_S5_(ptr noundef nonnull align 8 dereferenceable(80) %3, ptr noundef %12, ptr noundef %17) #14
  %18 = getelementptr inbounds nuw %"class.std::_Deque_base", ptr %3, i32 0, i32 0
  %19 = getelementptr inbounds nuw %"struct.std::_Deque_base<std::pair<unsigned char, bool>, std::allocator<std::pair<unsigned char, bool>>>::_Deque_impl_data", ptr %18, i32 0, i32 0
  %20 = load ptr, ptr %19, align 8, !tbaa !164
  %21 = getelementptr inbounds nuw %"class.std::_Deque_base", ptr %3, i32 0, i32 0
  %22 = getelementptr inbounds nuw %"struct.std::_Deque_base<std::pair<unsigned char, bool>, std::allocator<std::pair<unsigned char, bool>>>::_Deque_impl_data", ptr %21, i32 0, i32 1
  %23 = load i64, ptr %22, align 8, !tbaa !163
  call void @_ZNSt11_Deque_baseISt4pairIhbESaIS1_EE17_M_deallocate_mapEPPS1_m(ptr noundef nonnull align 8 dereferenceable(80) %3, ptr noundef %20, i64 noundef %23) #14
  br label %24

24:                                               ; preds = %8, %1
  %25 = getelementptr inbounds nuw %"class.std::_Deque_base", ptr %3, i32 0, i32 0
  call void @_ZNSt15__new_allocatorISt4pairIhbEED2Ev(ptr noundef nonnull align 8 dereferenceable(80) %25) #14
  ret void
}

; Function Attrs: mustprogress nounwind uwtable
define linkonce_odr void @_ZNSt5dequeISt4pairIhbESaIS1_EE15_M_destroy_dataESt15_Deque_iteratorIS1_RS1_PS1_ES7_RKS2_(ptr noundef nonnull align 8 dereferenceable(80) %0, ptr noundef %1, ptr noundef %2, ptr noundef nonnull align 1 dereferenceable(1) %3) #1 comdat align 2 {
  %5 = alloca ptr, align 8
  %6 = alloca ptr, align 8
  %7 = alloca ptr, align 8
  %8 = alloca ptr, align 8
  store ptr %0, ptr %5, align 8, !tbaa !20
  store ptr %1, ptr %6, align 8, !tbaa !62
  store ptr %2, ptr %7, align 8, !tbaa !62
  store ptr %3, ptr %8, align 8, !tbaa !171
  ret void
}

; Function Attrs: mustprogress nounwind uwtable
define linkonce_odr noundef nonnull align 1 dereferenceable(1) ptr @_ZNSt11_Deque_baseISt4pairIhbESaIS1_EE19_M_get_Tp_allocatorEv(ptr noundef nonnull align 8 dereferenceable(80) %0) #1 comdat align 2 {
  %2 = alloca ptr, align 8
  store ptr %0, ptr %2, align 8, !tbaa !159
  %3 = load ptr, ptr %2, align 8
  %4 = getelementptr inbounds nuw %"class.std::_Deque_base", ptr %3, i32 0, i32 0
  ret ptr %4
}

; Function Attrs: mustprogress nounwind uwtable
define linkonce_odr void @_ZNSt5dequeISt4pairIhbESaIS1_EE3endEv(ptr dead_on_unwind noalias writable sret(%"struct.std::_Deque_iterator") align 8 %0, ptr noundef nonnull align 8 dereferenceable(80) %1) #1 comdat align 2 {
  %3 = alloca ptr, align 8
  %4 = alloca ptr, align 8
  store ptr %0, ptr %3, align 8
  store ptr %1, ptr %4, align 8, !tbaa !20
  %5 = load ptr, ptr %4, align 8
  %6 = getelementptr inbounds nuw %"class.std::_Deque_base", ptr %5, i32 0, i32 0
  %7 = getelementptr inbounds nuw %"struct.std::_Deque_base<std::pair<unsigned char, bool>, std::allocator<std::pair<unsigned char, bool>>>::_Deque_impl_data", ptr %6, i32 0, i32 3
  call void @_ZNSt15_Deque_iteratorISt4pairIhbERS1_PS1_EC2ERKS4_(ptr noundef nonnull align 8 dereferenceable(32) %0, ptr noundef nonnull align 8 dereferenceable(32) %7) #14
  ret void
}

; Function Attrs: mustprogress nounwind uwtable
define linkonce_odr void @_ZNSt5dequeISt4pairIhbESaIS1_EE5beginEv(ptr dead_on_unwind noalias writable sret(%"struct.std::_Deque_iterator") align 8 %0, ptr noundef nonnull align 8 dereferenceable(80) %1) #1 comdat align 2 {
  %3 = alloca ptr, align 8
  %4 = alloca ptr, align 8
  store ptr %0, ptr %3, align 8
  store ptr %1, ptr %4, align 8, !tbaa !20
  %5 = load ptr, ptr %4, align 8
  %6 = getelementptr inbounds nuw %"class.std::_Deque_base", ptr %5, i32 0, i32 0
  %7 = getelementptr inbounds nuw %"struct.std::_Deque_base<std::pair<unsigned char, bool>, std::allocator<std::pair<unsigned char, bool>>>::_Deque_impl_data", ptr %6, i32 0, i32 2
  call void @_ZNSt15_Deque_iteratorISt4pairIhbERS1_PS1_EC2ERKS4_(ptr noundef nonnull align 8 dereferenceable(32) %0, ptr noundef nonnull align 8 dereferenceable(32) %7) #14
  ret void
}

; Function Attrs: mustprogress nounwind uwtable
define linkonce_odr void @_ZNSt5dequeISt4pairIhbESaIS1_EED2Ev(ptr noundef nonnull align 8 dereferenceable(80) %0) unnamed_addr #1 comdat align 2 personality ptr @__gxx_personality_v0 {
  %2 = alloca ptr, align 8
  %3 = alloca %"struct.std::_Deque_iterator", align 8
  %4 = alloca %"struct.std::_Deque_iterator", align 8
  store ptr %0, ptr %2, align 8, !tbaa !20
  %5 = load ptr, ptr %2, align 8
  call void @_ZNSt5dequeISt4pairIhbESaIS1_EE5beginEv(ptr dead_on_unwind writable sret(%"struct.std::_Deque_iterator") align 8 %3, ptr noundef nonnull align 8 dereferenceable(80) %5) #14
  call void @_ZNSt5dequeISt4pairIhbESaIS1_EE3endEv(ptr dead_on_unwind writable sret(%"struct.std::_Deque_iterator") align 8 %4, ptr noundef nonnull align 8 dereferenceable(80) %5) #14
  %6 = call noundef nonnull align 1 dereferenceable(1) ptr @_ZNSt11_Deque_baseISt4pairIhbESaIS1_EE19_M_get_Tp_allocatorEv(ptr noundef nonnull align 8 dereferenceable(80) %5) #14
  invoke void @_ZNSt5dequeISt4pairIhbESaIS1_EE15_M_destroy_dataESt15_Deque_iteratorIS1_RS1_PS1_ES7_RKS2_(ptr noundef nonnull align 8 dereferenceable(80) %5, ptr noundef %3, ptr noundef %4, ptr noundef nonnull align 1 dereferenceable(1) %6)
          to label %7 unwind label %8

7:                                                ; preds = %1
  call void @_ZNSt11_Deque_baseISt4pairIhbESaIS1_EED2Ev(ptr noundef nonnull align 8 dereferenceable(80) %5) #14
  ret void

8:                                                ; preds = %1
  %9 = landingpad { ptr, i32 }
          catch ptr null
  %10 = extractvalue { ptr, i32 } %9, 0
  call void @__clang_call_terminate(ptr %10) #15
  unreachable
}

; Function Attrs: mustprogress nounwind uwtable
define void @_ZN3net25QuicReceivedPacketManager14EntropyTrackerD2Ev(ptr noundef nonnull align 8 dereferenceable(104) %0) unnamed_addr #1 align 2 {
  %2 = alloca ptr, align 8
  store ptr %0, ptr %2, align 8, !tbaa !3
  %3 = load ptr, ptr %2, align 8
  %4 = getelementptr inbounds nuw %"class.net::QuicReceivedPacketManager::EntropyTracker", ptr %3, i32 0, i32 0
  call void @_ZNSt5dequeISt4pairIhbESaIS1_EED2Ev(ptr noundef nonnull align 8 dereferenceable(80) %4) #14
  ret void
}