; Function Attrs: mustprogress nounwind uwtable
define void @_ZN3net25QuicReceivedPacketManager14EntropyTrackerD2Ev(ptr noundef nonnull readonly align 8 captures(none) dereferenceable(104) %0) unnamed_addr #1 align 2 personality ptr @__gxx_personality_v0 {
  %2 = load ptr, ptr %0, align 8, !tbaa !18
  %.not.i.i = icmp eq ptr %2, null
  br i1 %.not.i.i, label %_ZNSt5dequeISt4pairIhbESaIS1_EED2Ev.exit, label %3

3:                                                ; preds = %1
  %4 = getelementptr inbounds nuw i8, ptr %0, i64 72
  %5 = getelementptr inbounds nuw i8, ptr %0, i64 40
  %6 = load ptr, ptr %5, align 8, !tbaa !19
  %7 = load ptr, ptr %4, align 8, !tbaa !20
  %8 = getelementptr inbounds nuw i8, ptr %7, i64 8
  %9 = icmp ult ptr %6, %8
  br i1 %9, label %.lr.ph.i.i.i, label %_ZNSt11_Deque_baseISt4pairIhbESaIS1_EE16_M_destroy_nodesEPPS1_S5_.exit.i.i

.lr.ph.i.i.i:                                     ; preds = %3, %.lr.ph.i.i.i
  %.06.i.i.i = phi ptr [ %11, %.lr.ph.i.i.i ], [ %6, %3 ]
  %10 = load ptr, ptr %.06.i.i.i, align 8, !tbaa !21
  tail call void @_ZdlPv(ptr noundef %10) #17
  %11 = getelementptr inbounds nuw i8, ptr %.06.i.i.i, i64 8
  %12 = icmp ult ptr %.06.i.i.i, %7
  br i1 %12, label %.lr.ph.i.i.i, label %_ZNSt11_Deque_baseISt4pairIhbESaIS1_EE16_M_destroy_nodesEPPS1_S5_.exit.loopexit.i.i, !llvm.loop !22

_ZNSt11_Deque_baseISt4pairIhbESaIS1_EE16_M_destroy_nodesEPPS1_S5_.exit.loopexit.i.i: ; preds = %.lr.ph.i.i.i
  %.pre.i.i = load ptr, ptr %0, align 8, !tbaa !18
  br label %_ZNSt11_Deque_baseISt4pairIhbESaIS1_EE16_M_destroy_nodesEPPS1_S5_.exit.i.i

_ZNSt11_Deque_baseISt4pairIhbESaIS1_EE16_M_destroy_nodesEPPS1_S5_.exit.i.i: ; preds = %_ZNSt11_Deque_baseISt4pairIhbESaIS1_EE16_M_destroy_nodesEPPS1_S5_.exit.loopexit.i.i, %3
  %13 = phi ptr [ %.pre.i.i, %_ZNSt11_Deque_baseISt4pairIhbESaIS1_EE16_M_destroy_nodesEPPS1_S5_.exit.loopexit.i.i ], [ %2, %3 ]
  tail call void @_ZdlPv(ptr noundef %13) #17
  br label %_ZNSt5dequeISt4pairIhbESaIS1_EED2Ev.exit

_ZNSt5dequeISt4pairIhbESaIS1_EED2Ev.exit:         ; preds = %1, %_ZNSt11_Deque_baseISt4pairIhbESaIS1_EE16_M_destroy_nodesEPPS1_S5_.exit.i.i
  ret void
}